target datalayout = "e-m:e-p270:32:32-p271:32:32-p272:64:64-i64:64-i128:128-f80:128-n8:16:32:64-S128"
target triple = "x86_64-pc-linux-gnu"

%struct.ident_t = type { i32, i32, i32, i32, ptr }
%"struct.OpenSubdiv::v3_6_0::Osd::BufferDescriptor" = type { i32, i32, i32 }

@2 = private unnamed_addr constant %struct.ident_t { i32 0, i32 2, i32 0, i32 22, ptr @0 }, align 8

; Function Attrs: mustprogress uwtable
define void @_ZN10OpenSubdiv6v3_6_03Osd15OmpEvalStencilsEPKfRKNS1_16BufferDescriptorEPfS6_PKiS9_S9_S3_ii(ptr noundef %0, ptr noundef nonnull align 4 dereferenceable(12) %1, ptr noundef %2, ptr noundef nonnull align 4 dereferenceable(12) %3, ptr noundef %4, ptr noundef %5, ptr noundef %6, ptr noundef %7, i32 noundef %8, i32 noundef %9) #0 {
  %11 = alloca ptr, align 8
  %12 = alloca ptr, align 8
  %13 = alloca ptr, align 8
  %14 = alloca ptr, align 8
  %15 = alloca ptr, align 8
  %16 = alloca ptr, align 8
  %17 = alloca ptr, align 8
  %18 = alloca ptr, align 8
  %19 = alloca i32, align 4
  %20 = alloca i32, align 4
  %21 = alloca i32, align 4
  %22 = alloca i32, align 4
  %23 = alloca ptr, align 8
  store ptr %0, ptr %11, align 8
  store ptr %1, ptr %12, align 8
  store ptr %2, ptr %13, align 8
  store ptr %3, ptr %14, align 8
  store ptr %4, ptr %15, align 8
  store ptr %5, ptr %16, align 8
  store ptr %6, ptr %17, align 8
  store ptr %7, ptr %18, align 8
  store i32 %8, ptr %19, align 4
  store i32 %9, ptr %20, align 4
  %24 = load i32, ptr %19, align 4
  %25 = icmp sgt i32 %24, 0
  br i1 %25, label %26, label %28

26:                                               ; preds = %10
  %27 = load i32, ptr %19, align 4
  br label %29

28:                                               ; preds = %10
  br label %29

29:                                               ; preds = %28, %26
  %30 = phi i32 [ %27, %26 ], [ 0, %28 ]
  store i32 %30, ptr %19, align 4
  %31 = load ptr, ptr %12, align 8
  %32 = getelementptr inbounds nuw %"struct.OpenSubdiv::v3_6_0::Osd::BufferDescriptor", ptr %31, i32 0, i32 0
  %33 = load i32, ptr %32, align 4
  %34 = load ptr, ptr %11, align 8
  %35 = sext i32 %33 to i64
  %36 = getelementptr inbounds float, ptr %34, i64 %35
  store ptr %36, ptr %11, align 8
  %37 = load ptr, ptr %14, align 8
  %38 = getelementptr inbounds nuw %"struct.OpenSubdiv::v3_6_0::Osd::BufferDescriptor", ptr %37, i32 0, i32 0
  %39 = load i32, ptr %38, align 4
  %40 = load ptr, ptr %13, align 8
  %41 = sext i32 %39 to i64
  %42 = getelementptr inbounds float, ptr %40, i64 %41
  store ptr %42, ptr %13, align 8
  %43 = call i32 @omp_get_max_threads()
  store i32 %43, ptr %21, align 4
  %44 = load i32, ptr %20, align 4
  %45 = load i32, ptr %19, align 4
  %46 = sub nsw i32 %44, %45
  store i32 %46, ptr %22, align 4
  %47 = load ptr, ptr %12, align 8
  %48 = getelementptr inbounds nuw %"struct.OpenSubdiv::v3_6_0::Osd::BufferDescriptor", ptr %47, i32 0, i32 1
  %49 = load i32, ptr %48, align 4
  %50 = load i32, ptr %21, align 4
  %51 = mul nsw i32 %49, %50
  %52 = sext i32 %51 to i64
  %53 = mul i64 %52, 4
  %54 = alloca i8, i64 %53, align 16
  store ptr %54, ptr %23, align 8
  %55 = load ptr, ptr %12, align 8
  %56 = load ptr, ptr %14, align 8
  call void (ptr, i32, ptr, ...) @__kmpc_fork_call(ptr @2, i32 11, ptr @_ZN10OpenSubdiv6v3_6_03Osd15OmpEvalStencilsEPKfRKNS1_16BufferDescriptorEPfS6_PKiS9_S9_S3_ii.omp_outlined, ptr %22, ptr %19, ptr %17, ptr %16, ptr %18, ptr %23, ptr %55, ptr %56, ptr %15, ptr %11, ptr %13)
  ret void
}