; Function Attrs: mustprogress nounwind uwtable
define void @_ZN10OpenSubdiv6v3_6_03Osd15OmpEvalStencilsEPKfRKNS1_16BufferDescriptorEPfS6_PKiS9_S9_S3_ii(ptr noundef %0, ptr noundef nonnull align 4 dereferenceable(12) %1, ptr noundef %2, ptr noundef nonnull align 4 dereferenceable(12) %3, ptr noundef %4, ptr noundef %5, ptr noundef %6, ptr noundef %7, i32 noundef %8, i32 noundef %9) local_unnamed_addr #0 {
  %11 = alloca ptr, align 8
  %12 = alloca ptr, align 8
  %13 = alloca ptr, align 8
  %14 = alloca ptr, align 8
  %15 = alloca ptr, align 8
  %16 = alloca ptr, align 8
  %17 = alloca i32, align 4
  %18 = alloca i32, align 4
  %19 = alloca ptr, align 8
  store ptr %4, ptr %13, align 8
  store ptr %5, ptr %14, align 8
  store ptr %6, ptr %15, align 8
  store ptr %7, ptr %16, align 8
  %20 = tail call i32 @llvm.smax.i32(i32 %8, i32 0)
  store i32 %20, ptr %17, align 4
  %21 = load i32, ptr %1, align 4
  %22 = sext i32 %21 to i64
  %23 = getelementptr inbounds float, ptr %0, i64 %22
  store ptr %23, ptr %11, align 8
  %24 = load i32, ptr %3, align 4
  %25 = sext i32 %24 to i64
  %26 = getelementptr inbounds float, ptr %2, i64 %25
  store ptr %26, ptr %12, align 8
  %27 = tail call i32 @omp_get_max_threads()
  %28 = sub nsw i32 %9, %20
  store i32 %28, ptr %18, align 4
  %29 = getelementptr inbounds nuw i8, ptr %1, i64 4
  %30 = load i32, ptr %29, align 4
  %31 = mul nsw i32 %30, %27
  %32 = sext i32 %31 to i64
  %33 = shl nsw i64 %32, 2
  %34 = alloca i8, i64 %33, align 16
  store ptr %34, ptr %19, align 8
  call void (ptr, i32, ptr, ...) @__kmpc_fork_call(ptr nonnull @2, i32 11, ptr nonnull @_ZN10OpenSubdiv6v3_6_03Osd15OmpEvalStencilsEPKfRKNS1_16BufferDescriptorEPfS6_PKiS9_S9_S3_ii.omp_outlined, ptr nonnull %18, ptr nonnull %17, ptr nonnull %15, ptr nonnull %14, ptr nonnull %16, ptr nonnull %19, ptr nonnull %1, ptr nonnull %3, ptr nonnull %13, ptr nonnull %11, ptr nonnull %12)
  ret void
}